#include <math.h>
#include <stdio.h>
#include <stdlib.h>
#include <string.h>

main()
{  
  int m,i,n,j;
  scanf("%d",&m);
  int a[10000],b[10000];
  a[0]=2;
  a[1]=3;
  b[0]=1;
  b[1]=2;
  for(i=2;i<10000;i++)
  {  a[i]=a[i-1]+a[i-2];
     b[i]=b[i-1]+b[i-2];
  }
  for(i=0;i<m;i++)
  { float sum=0;
   scanf("%d",&n);
   for(j=0;j<n;j++)
   sum=sum+(float)a[j]/b[j];
  printf("%.3f\n",sum);}
  getchar();
  getchar();
  getchar();
}
   
